target datalayout = "e-m:e-p270:32:32-p271:32:32-p272:64:64-i64:64-i128:128-f80:128-n8:16:32:64-S128"
target triple = "x86_64-pc-linux-gnu"

%struct.H5G_loc_t = type { ptr, ptr }
%struct.H5O_loc_t = type { ptr, i64, i8 }
%struct.H5G_name_t = type { ptr, ptr, i32 }

@.str.3 = private unnamed_addr constant [100 x i8] c"generated/home/dtcxzyw/WorkSpace/Projects/compilers/llvm-opt-benchmark/bench/hdf5/hdf5/src/H5Aint.c\00", align 1
@H5E_ATTR_g = external global i64, align 8
@H5E_NOTFOUND_g = external global i64, align 8
@H5E_CANTGET_g = external global i64, align 8
@.str.28 = private unnamed_addr constant [17 x i8] c"object not found\00", align 1
@H5E_CANTRELEASE_g = external global i64, align 8
@.str.30 = private unnamed_addr constant [20 x i8] c"can't free location\00", align 1
@__func__.H5A__exists_by_name = private unnamed_addr constant [20 x i8] c"H5A__exists_by_name\00", align 1
@.str.57 = private unnamed_addr constant [40 x i8] c"unable to determine if attribute exists\00", align 1

; Function Attrs: nounwind uwtable
define i32 @H5A__exists_by_name(ptr %0, ptr %1, ptr noundef %2, ptr noundef %3, ptr noundef %4) #0 {
  %6 = alloca %struct.H5G_loc_t, align 8
  %7 = alloca ptr, align 8
  %8 = alloca ptr, align 8
  %9 = alloca ptr, align 8
  %10 = alloca %struct.H5G_loc_t, align 8
  %11 = alloca %struct.H5G_name_t, align 8
  %12 = alloca %struct.H5O_loc_t, align 8
  %13 = alloca i8, align 1
  %14 = alloca i32, align 4
  %15 = alloca i8, align 1
  %16 = getelementptr inbounds { ptr, ptr }, ptr %6, i32 0, i32 0
  store ptr %0, ptr %16, align 8
  %17 = getelementptr inbounds { ptr, ptr }, ptr %6, i32 0, i32 1
  store ptr %1, ptr %17, align 8
  store ptr %2, ptr %7, align 8
  store ptr %3, ptr %8, align 8
  store ptr %4, ptr %9, align 8
  store i8 0, ptr %13, align 1
  store i32 0, ptr %14, align 4
  store i8 0, ptr %15, align 1
  %18 = getelementptr inbounds %struct.H5G_loc_t, ptr %10, i32 0, i32 0
  store ptr %12, ptr %18, align 8
  %19 = getelementptr inbounds %struct.H5G_loc_t, ptr %10, i32 0, i32 1
  store ptr %11, ptr %19, align 8
  %20 = call i32 @H5G_loc_reset(ptr noundef %10)
  %21 = load ptr, ptr %7, align 8
  %22 = call i32 @H5G_loc_find(ptr noundef %6, ptr noundef %21, ptr noundef %10)
  %23 = icmp slt i32 %22, 0
  br i1 %23, label %24, label %39

24:                                               ; preds = %5
  br label %25

25:                                               ; preds = %24
  br label %26

26:                                               ; preds = %25
  br label %27

27:                                               ; preds = %26
  %28 = load i64, ptr @H5E_ATTR_g, align 8
  %29 = load i64, ptr @H5E_NOTFOUND_g, align 8
  %30 = call i32 (ptr, ptr, i32, i64, i64, ptr, ...) @H5E_printf_stack(ptr noundef @.str.3, ptr noundef @__func__.H5A__exists_by_name, i32 noundef 1414, i64 noundef %28, i64 noundef %29, ptr noundef @.str.28)
  br label %31

31:                                               ; preds = %27
  store i8 1, ptr %15, align 1
  %32 = load i8, ptr %15, align 1
  %33 = trunc i8 %32 to i1
  %34 = zext i1 %33 to i8
  store i8 %34, ptr %15, align 1
  br label %35

35:                                               ; preds = %31
  br label %36

36:                                               ; preds = %35
  store i32 -1, ptr %14, align 4
  br label %62

37:                                               ; No predecessors!
  br label %38

38:                                               ; preds = %37
  br label %39

39:                                               ; preds = %38, %5
  store i8 1, ptr %13, align 1
  %40 = getelementptr inbounds %struct.H5G_loc_t, ptr %10, i32 0, i32 0
  %41 = load ptr, ptr %40, align 8
  %42 = load ptr, ptr %8, align 8
  %43 = load ptr, ptr %9, align 8
  %44 = call i32 @H5O__attr_exists(ptr noundef %41, ptr noundef %42, ptr noundef %43)
  %45 = icmp slt i32 %44, 0
  br i1 %45, label %46, label %61

46:                                               ; preds = %39
  br label %47

47:                                               ; preds = %46
  br label %48

48:                                               ; preds = %47
  br label %49

49:                                               ; preds = %48
  %50 = load i64, ptr @H5E_ATTR_g, align 8
  %51 = load i64, ptr @H5E_CANTGET_g, align 8
  %52 = call i32 (ptr, ptr, i32, i64, i64, ptr, ...) @H5E_printf_stack(ptr noundef @.str.3, ptr noundef @__func__.H5A__exists_by_name, i32 noundef 1419, i64 noundef %50, i64 noundef %51, ptr noundef @.str.57)
  br label %53

53:                                               ; preds = %49
  store i8 1, ptr %15, align 1
  %54 = load i8, ptr %15, align 1
  %55 = trunc i8 %54 to i1
  %56 = zext i1 %55 to i8
  store i8 %56, ptr %15, align 1
  br label %57

57:                                               ; preds = %53
  br label %58

58:                                               ; preds = %57
  store i32 -1, ptr %14, align 4
  br label %62

59:                                               ; No predecessors!
  br label %60

60:                                               ; preds = %59
  br label %61

61:                                               ; preds = %60, %39
  br label %62

62:                                               ; preds = %61, %58, %36
  %63 = load i8, ptr %13, align 1
  %64 = trunc i8 %63 to i1
  br i1 %64, label %65, label %81

65:                                               ; preds = %62
  %66 = call i32 @H5G_loc_free(ptr noundef %10)
  %67 = icmp slt i32 %66, 0
  br i1 %67, label %68, label %81

68:                                               ; preds = %65
  br label %69

69:                                               ; preds = %68
  br label %70

70:                                               ; preds = %69
  br label %71

71:                                               ; preds = %70
  %72 = load i64, ptr @H5E_ATTR_g, align 8
  %73 = load i64, ptr @H5E_CANTRELEASE_g, align 8
  %74 = call i32 (ptr, ptr, i32, i64, i64, ptr, ...) @H5E_printf_stack(ptr noundef @.str.3, ptr noundef @__func__.H5A__exists_by_name, i32 noundef 1424, i64 noundef %72, i64 noundef %73, ptr noundef @.str.30)
  br label %75

75:                                               ; preds = %71
  store i8 1, ptr %15, align 1
  %76 = load i8, ptr %15, align 1
  %77 = trunc i8 %76 to i1
  %78 = zext i1 %77 to i8
  store i8 %78, ptr %15, align 1
  br label %79

79:                                               ; preds = %75
  store i32 -1, ptr %14, align 4
  br label %80

80:                                               ; preds = %79
  br label %81

81:                                               ; preds = %80, %65, %62
  %82 = load i32, ptr %14, align 4
  ret i32 %82
}