; Function Attrs: nounwind uwtable
define range(i32 -1, 1) i32 @H5A__exists_by_name(ptr %0, ptr %1, ptr noundef %2, ptr noundef %3, ptr noundef %4) local_unnamed_addr #0 {
  %6 = alloca %struct.H5G_loc_t, align 8
  %7 = alloca %struct.H5G_loc_t, align 8
  %8 = alloca %struct.H5G_name_t, align 8
  %9 = alloca %struct.H5O_loc_t, align 8
  store ptr %0, ptr %6, align 8
  %10 = getelementptr inbounds i8, ptr %6, i64 8
  store ptr %1, ptr %10, align 8
  store ptr %9, ptr %7, align 8
  %11 = getelementptr inbounds i8, ptr %7, i64 8
  store ptr %8, ptr %11, align 8
  %12 = call i32 @H5G_loc_reset(ptr noundef nonnull %7) #13
  %13 = call i32 @H5G_loc_find(ptr noundef nonnull %6, ptr noundef %2, ptr noundef nonnull %7) #13
  %14 = icmp sgt i32 %13, -1
  br i1 %14, label %15, label %23

15:                                               ; preds = %5
  %16 = load ptr, ptr %7, align 8
  %17 = call i32 @H5O__attr_exists(ptr noundef %16, ptr noundef %3, ptr noundef %4) #13
  %18 = icmp slt i32 %17, 0
  br i1 %18, label %19, label %27

19:                                               ; preds = %15
  %20 = load i64, ptr @H5E_ATTR_g, align 8
  %21 = load i64, ptr @H5E_CANTGET_g, align 8
  %22 = call i32 (ptr, ptr, i32, i64, i64, ptr, ...) @H5E_printf_stack(ptr noundef nonnull @.str.3, ptr noundef nonnull @__func__.H5A__exists_by_name, i32 noundef 1419, i64 noundef %20, i64 noundef %21, ptr noundef nonnull @.str.57) #13
  br label %27

23:                                               ; preds = %5
  %24 = load i64, ptr @H5E_ATTR_g, align 8
  %25 = load i64, ptr @H5E_NOTFOUND_g, align 8
  %26 = call i32 (ptr, ptr, i32, i64, i64, ptr, ...) @H5E_printf_stack(ptr noundef nonnull @.str.3, ptr noundef nonnull @__func__.H5A__exists_by_name, i32 noundef 1414, i64 noundef %24, i64 noundef %25, ptr noundef nonnull @.str.28) #13
  br label %34

27:                                               ; preds = %15, %19
  %.0.ph = phi i32 [ 0, %15 ], [ -1, %19 ]
  %28 = call i32 @H5G_loc_free(ptr noundef nonnull %7) #13
  %29 = icmp slt i32 %28, 0
  br i1 %29, label %30, label %34

30:                                               ; preds = %27
  %31 = load i64, ptr @H5E_ATTR_g, align 8
  %32 = load i64, ptr @H5E_CANTRELEASE_g, align 8
  %33 = call i32 (ptr, ptr, i32, i64, i64, ptr, ...) @H5E_printf_stack(ptr noundef nonnull @.str.3, ptr noundef nonnull @__func__.H5A__exists_by_name, i32 noundef 1424, i64 noundef %31, i64 noundef %32, ptr noundef nonnull @.str.30) #13
  br label %34

34:                                               ; preds = %23, %30, %27
  %.1 = phi i32 [ -1, %30 ], [ %.0.ph, %27 ], [ -1, %23 ]
  ret i32 %.1
}